target datalayout = "e-m:e-p270:32:32-p271:32:32-p272:64:64-i64:64-i128:128-f80:128-n8:16:32:64-S128"
target triple = "x86_64-unknown-linux-gnu"

%"class.llvh::StringRef" = type { ptr, i64 }
%"struct.std::atomic" = type { %"struct.std::__atomic_base" }
%"struct.std::__atomic_base" = type { ptr }
%"class.llvh::SmallPtrSet" = type { %"class.llvh::SmallPtrSetImpl.base", [4 x ptr] }
%"class.llvh::SmallPtrSetImpl.base" = type { %"class.llvh::SmallPtrSetImplBase.base" }
%"class.llvh::SmallPtrSetImplBase.base" = type <{ ptr, ptr, i32, i32, i32 }>
%"class.std::__cxx11::basic_string" = type { %"struct.std::__cxx11::basic_string<char>::_Alloc_hider", i64, %union.anon }
%"struct.std::__cxx11::basic_string<char>::_Alloc_hider" = type { ptr }
%union.anon = type { i64, [8 x i8] }
%"class.(anonymous namespace)::CommandLineParser" = type { %"class.std::__cxx11::basic_string", %"class.llvh::StringRef", %"class.std::vector", %"class.llvh::SmallPtrSet.45", %"class.llvh::SmallPtrSet", ptr }
%"class.std::vector" = type { %"struct.std::_Vector_base" }
%"struct.std::_Vector_base" = type { %"struct.std::_Vector_base<llvh::StringRef, std::allocator<llvh::StringRef>>::_Vector_impl" }
%"struct.std::_Vector_base<llvh::StringRef, std::allocator<llvh::StringRef>>::_Vector_impl" = type { %"struct.std::_Vector_base<llvh::StringRef, std::allocator<llvh::StringRef>>::_Vector_impl_data" }
%"struct.std::_Vector_base<llvh::StringRef, std::allocator<llvh::StringRef>>::_Vector_impl_data" = type { ptr, ptr, ptr }
%"class.llvh::SmallPtrSet.45" = type { %"class.llvh::SmallPtrSetImpl.base.47", [16 x ptr] }
%"class.llvh::SmallPtrSetImpl.base.47" = type { %"class.llvh::SmallPtrSetImplBase.base" }
%"class.llvh::ManagedStaticBase" = type { %"struct.std::atomic", ptr, ptr }
%"class.llvh::SmallPtrSetImplBase" = type <{ ptr, ptr, i32, i32, i32, [4 x i8] }>

@_ZL12GlobalParser = internal global { %"struct.std::atomic", ptr, ptr } zeroinitializer, align 8

; Function Attrs: mustprogress nounwind uwtable
define linkonce_odr hidden noundef zeroext i1 @_ZNK4llvh19SmallPtrSetImplBase7isSmallEv(ptr noundef nonnull align 8 dereferenceable(28) %this) #0 comdat align 2 {
entry:
  %this.addr = alloca ptr, align 8
  store ptr %this, ptr %this.addr, align 8
  %this1 = load ptr, ptr %this.addr, align 8
  %CurArray = getelementptr inbounds %"class.llvh::SmallPtrSetImplBase", ptr %this1, i32 0, i32 1
  %0 = load ptr, ptr %CurArray, align 8
  %SmallArray = getelementptr inbounds %"class.llvh::SmallPtrSetImplBase", ptr %this1, i32 0, i32 0
  %1 = load ptr, ptr %SmallArray, align 8
  %cmp = icmp eq ptr %0, %1
  ret i1 %cmp
}

; Function Attrs: mustprogress nounwind uwtable
define linkonce_odr hidden noundef ptr @_ZN4llvh19SmallPtrSetImplBase18getTombstoneMarkerEv() #0 comdat align 2 {
entry:
  ret ptr inttoptr (i64 -2 to ptr)
}

; Function Attrs: mustprogress nounwind uwtable
define linkonce_odr hidden noundef ptr @_ZNK4llvh19SmallPtrSetImplBase10EndPointerEv(ptr noundef nonnull align 8 dereferenceable(28) %this) #0 comdat align 2 {
entry:
  %this.addr = alloca ptr, align 8
  store ptr %this, ptr %this.addr, align 8
  %this1 = load ptr, ptr %this.addr, align 8
  %call = call noundef zeroext i1 @_ZNK4llvh19SmallPtrSetImplBase7isSmallEv(ptr noundef nonnull align 8 dereferenceable(28) %this1)
  br i1 %call, label %cond.true, label %cond.false

cond.true:                                        ; preds = %entry
  %CurArray = getelementptr inbounds %"class.llvh::SmallPtrSetImplBase", ptr %this1, i32 0, i32 1
  %0 = load ptr, ptr %CurArray, align 8
  %NumNonEmpty = getelementptr inbounds %"class.llvh::SmallPtrSetImplBase", ptr %this1, i32 0, i32 3
  %1 = load i32, ptr %NumNonEmpty, align 4
  %idx.ext = zext i32 %1 to i64
  %add.ptr = getelementptr inbounds ptr, ptr %0, i64 %idx.ext
  br label %cond.end

cond.false:                                       ; preds = %entry
  %CurArray2 = getelementptr inbounds %"class.llvh::SmallPtrSetImplBase", ptr %this1, i32 0, i32 1
  %2 = load ptr, ptr %CurArray2, align 8
  %CurArraySize = getelementptr inbounds %"class.llvh::SmallPtrSetImplBase", ptr %this1, i32 0, i32 2
  %3 = load i32, ptr %CurArraySize, align 8
  %idx.ext3 = zext i32 %3 to i64
  %add.ptr4 = getelementptr inbounds ptr, ptr %2, i64 %idx.ext3
  br label %cond.end

cond.end:                                         ; preds = %cond.false, %cond.true
  %cond = phi ptr [ %add.ptr, %cond.true ], [ %add.ptr4, %cond.false ]
  ret ptr %cond
}

; Function Attrs: mustprogress nounwind uwtable
define linkonce_odr hidden noundef ptr @_ZNK4llvh19SmallPtrSetImplBase8find_impEPKv(ptr noundef nonnull align 8 dereferenceable(28) %this, ptr noundef %Ptr) #0 comdat align 2 {
entry:
  %retval = alloca ptr, align 8
  %this.addr = alloca ptr, align 8
  %Ptr.addr = alloca ptr, align 8
  %APtr = alloca ptr, align 8
  %E = alloca ptr, align 8
  %Bucket = alloca ptr, align 8
  store ptr %this, ptr %this.addr, align 8
  store ptr %Ptr, ptr %Ptr.addr, align 8
  %this1 = load ptr, ptr %this.addr, align 8
  %call = call noundef zeroext i1 @_ZNK4llvh19SmallPtrSetImplBase7isSmallEv(ptr noundef nonnull align 8 dereferenceable(28) %this1)
  br i1 %call, label %if.then, label %if.end6

if.then:                                          ; preds = %entry
  %SmallArray = getelementptr inbounds %"class.llvh::SmallPtrSetImplBase", ptr %this1, i32 0, i32 0
  %0 = load ptr, ptr %SmallArray, align 8
  store ptr %0, ptr %APtr, align 8
  %SmallArray2 = getelementptr inbounds %"class.llvh::SmallPtrSetImplBase", ptr %this1, i32 0, i32 0
  %1 = load ptr, ptr %SmallArray2, align 8
  %NumNonEmpty = getelementptr inbounds %"class.llvh::SmallPtrSetImplBase", ptr %this1, i32 0, i32 3
  %2 = load i32, ptr %NumNonEmpty, align 4
  %idx.ext = zext i32 %2 to i64
  %add.ptr = getelementptr inbounds ptr, ptr %1, i64 %idx.ext
  store ptr %add.ptr, ptr %E, align 8
  br label %for.cond

for.cond:                                         ; preds = %for.inc, %if.then
  %3 = load ptr, ptr %APtr, align 8
  %4 = load ptr, ptr %E, align 8
  %cmp = icmp ne ptr %3, %4
  br i1 %cmp, label %for.body, label %for.end

for.body:                                         ; preds = %for.cond
  %5 = load ptr, ptr %APtr, align 8
  %6 = load ptr, ptr %5, align 8
  %7 = load ptr, ptr %Ptr.addr, align 8
  %cmp3 = icmp eq ptr %6, %7
  br i1 %cmp3, label %if.then4, label %if.end

if.then4:                                         ; preds = %for.body
  %8 = load ptr, ptr %APtr, align 8
  store ptr %8, ptr %retval, align 8
  br label %return

if.end:                                           ; preds = %for.body
  br label %for.inc

for.inc:                                          ; preds = %if.end
  %9 = load ptr, ptr %APtr, align 8
  %incdec.ptr = getelementptr inbounds ptr, ptr %9, i32 1
  store ptr %incdec.ptr, ptr %APtr, align 8
  br label %for.cond, !llvm.loop !47

for.end:                                          ; preds = %for.cond
  %call5 = call noundef ptr @_ZNK4llvh19SmallPtrSetImplBase10EndPointerEv(ptr noundef nonnull align 8 dereferenceable(28) %this1)
  store ptr %call5, ptr %retval, align 8
  br label %return

if.end6:                                          ; preds = %entry
  %10 = load ptr, ptr %Ptr.addr, align 8
  %call7 = call noundef ptr @_ZNK4llvh19SmallPtrSetImplBase13FindBucketForEPKv(ptr noundef nonnull align 8 dereferenceable(28) %this1, ptr noundef %10)
  store ptr %call7, ptr %Bucket, align 8
  %11 = load ptr, ptr %Bucket, align 8
  %12 = load ptr, ptr %11, align 8
  %13 = load ptr, ptr %Ptr.addr, align 8
  %cmp8 = icmp eq ptr %12, %13
  br i1 %cmp8, label %if.then9, label %if.end10

if.then9:                                         ; preds = %if.end6
  %14 = load ptr, ptr %Bucket, align 8
  store ptr %14, ptr %retval, align 8
  br label %return

if.end10:                                         ; preds = %if.end6
  %call11 = call noundef ptr @_ZNK4llvh19SmallPtrSetImplBase10EndPointerEv(ptr noundef nonnull align 8 dereferenceable(28) %this1)
  store ptr %call11, ptr %retval, align 8
  br label %return

return:                                           ; preds = %if.end10, %if.then9, %for.end, %if.then4
  %15 = load ptr, ptr %retval, align 8
  ret ptr %15
}

; Function Attrs: mustprogress nounwind uwtable
define linkonce_odr noundef i32 @_ZStanSt12memory_orderSt23__memory_order_modifier(i32 noundef %__m, i32 noundef %__mod) #0 comdat {
entry:
  %__m.addr = alloca i32, align 4
  %__mod.addr = alloca i32, align 4
  store i32 %__m, ptr %__m.addr, align 4
  store i32 %__mod, ptr %__mod.addr, align 4
  %0 = load i32, ptr %__m.addr, align 4
  %1 = load i32, ptr %__mod.addr, align 4
  %and = and i32 %0, %1
  ret i32 %and
}

; Function Attrs: mustprogress nounwind uwtable
define linkonce_odr hidden noundef zeroext i1 @_ZN4llvh19SmallPtrSetImplBase9erase_impEPKv(ptr noundef nonnull align 8 dereferenceable(28) %this, ptr noundef %Ptr) #0 comdat align 2 {
entry:
  %retval = alloca i1, align 1
  %this.addr = alloca ptr, align 8
  %Ptr.addr = alloca ptr, align 8
  %P = alloca ptr, align 8
  %Loc = alloca ptr, align 8
  store ptr %this, ptr %this.addr, align 8
  store ptr %Ptr, ptr %Ptr.addr, align 8
  %this1 = load ptr, ptr %this.addr, align 8
  %0 = load ptr, ptr %Ptr.addr, align 8
  %call = call noundef ptr @_ZNK4llvh19SmallPtrSetImplBase8find_impEPKv(ptr noundef nonnull align 8 dereferenceable(28) %this1, ptr noundef %0)
  store ptr %call, ptr %P, align 8
  %1 = load ptr, ptr %P, align 8
  %call2 = call noundef ptr @_ZNK4llvh19SmallPtrSetImplBase10EndPointerEv(ptr noundef nonnull align 8 dereferenceable(28) %this1)
  %cmp = icmp eq ptr %1, %call2
  br i1 %cmp, label %if.then, label %if.end

if.then:                                          ; preds = %entry
  store i1 false, ptr %retval, align 1
  br label %return

if.end:                                           ; preds = %entry
  %2 = load ptr, ptr %P, align 8
  store ptr %2, ptr %Loc, align 8
  %call3 = call noundef ptr @_ZN4llvh19SmallPtrSetImplBase18getTombstoneMarkerEv()
  %3 = load ptr, ptr %Loc, align 8
  store ptr %call3, ptr %3, align 8
  %NumTombstones = getelementptr inbounds %"class.llvh::SmallPtrSetImplBase", ptr %this1, i32 0, i32 4
  %4 = load i32, ptr %NumTombstones, align 8
  %inc = add i32 %4, 1
  store i32 %inc, ptr %NumTombstones, align 8
  store i1 true, ptr %retval, align 1
  br label %return

return:                                           ; preds = %if.end, %if.then
  %5 = load i1, ptr %retval, align 1
  ret i1 %5
}

; Function Attrs: mustprogress nounwind uwtable
define linkonce_odr hidden noundef ptr @_ZN4llvh21PointerLikeTypeTraitsIPNS_2cl10SubCommandEE16getAsVoidPointerES3_(ptr noundef %P) #0 comdat align 2 {
entry:
  %P.addr = alloca ptr, align 8
  store ptr %P, ptr %P.addr, align 8
  %0 = load ptr, ptr %P.addr, align 8
  ret ptr %0
}

; Function Attrs: mustprogress nounwind uwtable
define linkonce_odr noundef ptr @_ZNKSt6atomicIPvE4loadESt12memory_order(ptr noundef nonnull align 8 dereferenceable(8) %this, i32 noundef %__m) #0 comdat align 2 {
entry:
  %this.addr.i = alloca ptr, align 8
  %__m.addr.i = alloca i32, align 4
  %__b.i = alloca i32, align 4
  %atomic-temp.i = alloca ptr, align 8
  %this.addr = alloca ptr, align 8
  %__m.addr = alloca i32, align 4
  store ptr %this, ptr %this.addr, align 8
  store i32 %__m, ptr %__m.addr, align 4
  %this1 = load ptr, ptr %this.addr, align 8
  %_M_b = getelementptr inbounds %"struct.std::atomic", ptr %this1, i32 0, i32 0
  %0 = load i32, ptr %__m.addr, align 4
  store ptr %_M_b, ptr %this.addr.i, align 8
  store i32 %0, ptr %__m.addr.i, align 4
  %this1.i = load ptr, ptr %this.addr.i, align 8
  %1 = load i32, ptr %__m.addr.i, align 4
  %call.i = call noundef i32 @_ZStanSt12memory_orderSt23__memory_order_modifier(i32 noundef %1, i32 noundef 65535)
  store i32 %call.i, ptr %__b.i, align 4
  %2 = load i32, ptr %__m.addr.i, align 4
  switch i32 %2, label %monotonic.i [
    i32 1, label %acquire.i
    i32 2, label %acquire.i
    i32 5, label %seqcst.i
  ]

monotonic.i:                                      ; preds = %entry
  %3 = load atomic i64, ptr %this1.i monotonic, align 8
  store i64 %3, ptr %atomic-temp.i, align 8
  br label %_ZNKSt13__atomic_baseIPvE4loadESt12memory_order.exit

acquire.i:                                        ; preds = %entry, %entry
  %4 = load atomic i64, ptr %this1.i acquire, align 8
  store i64 %4, ptr %atomic-temp.i, align 8
  br label %_ZNKSt13__atomic_baseIPvE4loadESt12memory_order.exit

seqcst.i:                                         ; preds = %entry
  %5 = load atomic i64, ptr %this1.i seq_cst, align 8
  store i64 %5, ptr %atomic-temp.i, align 8
  br label %_ZNKSt13__atomic_baseIPvE4loadESt12memory_order.exit

_ZNKSt13__atomic_baseIPvE4loadESt12memory_order.exit: ; preds = %seqcst.i, %acquire.i, %monotonic.i
  %6 = load ptr, ptr %atomic-temp.i, align 8
  ret ptr %6
}

; Function Attrs: mustprogress nounwind uwtable
define linkonce_odr hidden noundef zeroext i1 @_ZN4llvh15SmallPtrSetImplIPNS_2cl10SubCommandEE5eraseES3_(ptr noundef nonnull align 8 dereferenceable(28) %this, ptr noundef %Ptr) #0 comdat align 2 {
entry:
  %this.addr = alloca ptr, align 8
  %Ptr.addr = alloca ptr, align 8
  store ptr %this, ptr %this.addr, align 8
  store ptr %Ptr, ptr %Ptr.addr, align 8
  %this1 = load ptr, ptr %this.addr, align 8
  %0 = load ptr, ptr %Ptr.addr, align 8
  %call = call noundef ptr @_ZN4llvh21PointerLikeTypeTraitsIPNS_2cl10SubCommandEE16getAsVoidPointerES3_(ptr noundef %0)
  %call2 = call noundef zeroext i1 @_ZN4llvh19SmallPtrSetImplBase9erase_impEPKv(ptr noundef nonnull align 8 dereferenceable(28) %this1, ptr noundef %call)
  ret i1 %call2
}

; Function Attrs: mustprogress nounwind uwtable
define internal noundef nonnull align 8 dereferenceable(304) ptr @_ZN4llvh13ManagedStaticIN12_GLOBAL__N_117CommandLineParserENS_14object_creatorIS2_EENS_14object_deleterIS2_EEEdeEv(ptr noundef nonnull align 8 dereferenceable(24) %this) #0 align 2 {
entry:
  %this.addr = alloca ptr, align 8
  %Tmp = alloca ptr, align 8
  store ptr %this, ptr %this.addr, align 8
  %this1 = load ptr, ptr %this.addr, align 8
  %Ptr = getelementptr inbounds %"class.llvh::ManagedStaticBase", ptr %this1, i32 0, i32 0
  %call = call noundef ptr @_ZNKSt6atomicIPvE4loadESt12memory_order(ptr noundef nonnull align 8 dereferenceable(8) %Ptr, i32 noundef 2) #6
  store ptr %call, ptr %Tmp, align 8
  %0 = load ptr, ptr %Tmp, align 8
  %tobool = icmp ne ptr %0, null
  br i1 %tobool, label %if.end, label %if.then

if.then:                                          ; preds = %entry
  call void @_ZNK4llvh17ManagedStaticBase21RegisterManagedStaticEPFPvvEPFvS1_E(ptr noundef nonnull align 8 dereferenceable(24) %this1, ptr noundef @_ZN4llvh14object_creatorIN12_GLOBAL__N_117CommandLineParserEE4callEv, ptr noundef @_ZN4llvh14object_deleterIN12_GLOBAL__N_117CommandLineParserEE4callEPv)
  br label %if.end

if.end:                                           ; preds = %if.then, %entry
  %Ptr2 = getelementptr inbounds %"class.llvh::ManagedStaticBase", ptr %this1, i32 0, i32 0
  %call3 = call noundef ptr @_ZNKSt6atomicIPvE4loadESt12memory_order(ptr noundef nonnull align 8 dereferenceable(8) %Ptr2, i32 noundef 0) #6
  ret ptr %call3
}

; Function Attrs: mustprogress nounwind uwtable
define internal void @_ZN12_GLOBAL__N_117CommandLineParser20unregisterSubCommandEPN4llvh2cl10SubCommandE(ptr noundef nonnull align 8 dereferenceable(304) %this, ptr noundef %sub) #0 align 2 {
entry:
  %this.addr = alloca ptr, align 8
  %sub.addr = alloca ptr, align 8
  store ptr %this, ptr %this.addr, align 8
  store ptr %sub, ptr %sub.addr, align 8
  %this1 = load ptr, ptr %this.addr, align 8
  %RegisteredSubCommands = getelementptr inbounds %"class.(anonymous namespace)::CommandLineParser", ptr %this1, i32 0, i32 4
  %0 = load ptr, ptr %sub.addr, align 8
  %call = call noundef zeroext i1 @_ZN4llvh15SmallPtrSetImplIPNS_2cl10SubCommandEE5eraseES3_(ptr noundef nonnull align 8 dereferenceable(28) %RegisteredSubCommands, ptr noundef %0)
  ret void
}

; Function Attrs: mustprogress nounwind uwtable
define internal noundef ptr @_ZN4llvh13ManagedStaticIN12_GLOBAL__N_117CommandLineParserENS_14object_creatorIS2_EENS_14object_deleterIS2_EEEptEv(ptr noundef nonnull align 8 dereferenceable(24) %this) #0 align 2 {
entry:
  %this.addr = alloca ptr, align 8
  store ptr %this, ptr %this.addr, align 8
  %this1 = load ptr, ptr %this.addr, align 8
  %call = call noundef nonnull align 8 dereferenceable(304) ptr @_ZN4llvh13ManagedStaticIN12_GLOBAL__N_117CommandLineParserENS_14object_creatorIS2_EENS_14object_deleterIS2_EEEdeEv(ptr noundef nonnull align 8 dereferenceable(24) %this1)
  ret ptr %call
}

; Function Attrs: mustprogress nounwind uwtable
define hidden void @_ZN4llvh2cl10SubCommand20unregisterSubCommandEv(ptr noundef nonnull align 8 dereferenceable(168) %this) #0 align 2 {
entry:
  %this.addr = alloca ptr, align 8
  store ptr %this, ptr %this.addr, align 8
  %this1 = load ptr, ptr %this.addr, align 8
  %call = call noundef ptr @_ZN4llvh13ManagedStaticIN12_GLOBAL__N_117CommandLineParserENS_14object_creatorIS2_EENS_14object_deleterIS2_EEEptEv(ptr noundef nonnull align 8 dereferenceable(24) @_ZL12GlobalParser)
  call void @_ZN12_GLOBAL__N_117CommandLineParser20unregisterSubCommandEPN4llvh2cl10SubCommandE(ptr noundef nonnull align 8 dereferenceable(304) %call, ptr noundef %this1)
  ret void
}