; Function Attrs: mustprogress nounwind uwtable
define hidden void @_ZN4llvh2cl10SubCommand20unregisterSubCommandEv(ptr noundef nonnull align 8 dereferenceable(168) %this) local_unnamed_addr #0 align 2 {
entry:
  %0 = load atomic i64, ptr @_ZL12GlobalParser acquire, align 8
  %tobool.not.i.i = icmp eq i64 %0, 0
  br i1 %tobool.not.i.i, label %if.then.i.i, label %_ZN4llvh13ManagedStaticIN12_GLOBAL__N_117CommandLineParserENS_14object_creatorIS2_EENS_14object_deleterIS2_EEEptEv.exit

if.then.i.i:                                      ; preds = %entry
  tail call void @_ZNK4llvh17ManagedStaticBase21RegisterManagedStaticEPFPvvEPFvS1_E(ptr noundef nonnull align 8 dereferenceable(24) @_ZL12GlobalParser, ptr noundef nonnull @_ZN4llvh14object_creatorIN12_GLOBAL__N_117CommandLineParserEE4callEv, ptr noundef nonnull @_ZN4llvh14object_deleterIN12_GLOBAL__N_117CommandLineParserEE4callEPv) #27
  br label %_ZN4llvh13ManagedStaticIN12_GLOBAL__N_117CommandLineParserENS_14object_creatorIS2_EENS_14object_deleterIS2_EEEptEv.exit

_ZN4llvh13ManagedStaticIN12_GLOBAL__N_117CommandLineParserENS_14object_creatorIS2_EENS_14object_deleterIS2_EEEptEv.exit: ; preds = %entry, %if.then.i.i
  %1 = load atomic i64, ptr @_ZL12GlobalParser monotonic, align 8
  %atomic-temp.i.0.i1.i.i = inttoptr i64 %1 to ptr
  %RegisteredSubCommands.i = getelementptr inbounds i8, ptr %atomic-temp.i.0.i1.i.i, i64 232
  %CurArray.i.i.i.i.i = getelementptr inbounds i8, ptr %atomic-temp.i.0.i1.i.i, i64 240
  %2 = load ptr, ptr %CurArray.i.i.i.i.i, align 8
  %3 = load ptr, ptr %RegisteredSubCommands.i, align 8
  %cmp.i.i.i.i.i = icmp eq ptr %2, %3
  br i1 %cmp.i.i.i.i.i, label %if.then.i.i.i.i, label %if.end6.i.i.i.i

if.then.i.i.i.i:                                  ; preds = %_ZN4llvh13ManagedStaticIN12_GLOBAL__N_117CommandLineParserENS_14object_creatorIS2_EENS_14object_deleterIS2_EEEptEv.exit
  %NumNonEmpty.i.i.i.i = getelementptr inbounds i8, ptr %atomic-temp.i.0.i1.i.i, i64 252
  %4 = load i32, ptr %NumNonEmpty.i.i.i.i, align 4
  %idx.ext.i.i.i.i = zext i32 %4 to i64
  %add.ptr.i.i.i.i = getelementptr inbounds ptr, ptr %2, i64 %idx.ext.i.i.i.i
  %cmp.not15.i.i.i.i = icmp eq i32 %4, 0
  br i1 %cmp.not15.i.i.i.i, label %_ZNK4llvh19SmallPtrSetImplBase8find_impEPKv.exit.i.i.i, label %for.body.i.i.i.i

for.body.i.i.i.i:                                 ; preds = %if.then.i.i.i.i, %for.inc.i.i.i.i
  %APtr.016.i.i.i.i = phi ptr [ %incdec.ptr.i.i.i.i, %for.inc.i.i.i.i ], [ %2, %if.then.i.i.i.i ]
  %5 = load ptr, ptr %APtr.016.i.i.i.i, align 8
  %cmp3.i.i.i.i = icmp eq ptr %5, %this
  br i1 %cmp3.i.i.i.i, label %_ZNK4llvh19SmallPtrSetImplBase8find_impEPKv.exit.i.i.i, label %for.inc.i.i.i.i

for.inc.i.i.i.i:                                  ; preds = %for.body.i.i.i.i
  %incdec.ptr.i.i.i.i = getelementptr inbounds i8, ptr %APtr.016.i.i.i.i, i64 8
  %cmp.not.i.i.i.i = icmp eq ptr %incdec.ptr.i.i.i.i, %add.ptr.i.i.i.i
  br i1 %cmp.not.i.i.i.i, label %_ZNK4llvh19SmallPtrSetImplBase8find_impEPKv.exit.i.i.i, label %for.body.i.i.i.i, !llvm.loop !63

if.end6.i.i.i.i:                                  ; preds = %_ZN4llvh13ManagedStaticIN12_GLOBAL__N_117CommandLineParserENS_14object_creatorIS2_EENS_14object_deleterIS2_EEEptEv.exit
  %call7.i.i.i.i = tail call noundef ptr @_ZNK4llvh19SmallPtrSetImplBase13FindBucketForEPKv(ptr noundef nonnull align 8 dereferenceable(28) %RegisteredSubCommands.i, ptr noundef nonnull %this) #27
  %6 = load ptr, ptr %call7.i.i.i.i, align 8
  %cmp8.i.i.i.i = icmp eq ptr %6, %this
  %.pre.i.i.i = load ptr, ptr %CurArray.i.i.i.i.i, align 8
  %.pre5.i.i.i = load ptr, ptr %RegisteredSubCommands.i, align 8
  br i1 %cmp8.i.i.i.i, label %if.end6.i._ZNK4llvh19SmallPtrSetImplBase8find_impEPKv.exit_crit_edge.i.i.i, label %if.end10.i.i.i.i

if.end6.i._ZNK4llvh19SmallPtrSetImplBase8find_impEPKv.exit_crit_edge.i.i.i: ; preds = %if.end6.i.i.i.i
  %NumNonEmpty.i4.phi.trans.insert.i.i.i = getelementptr inbounds i8, ptr %atomic-temp.i.0.i1.i.i, i64 252
  %.pre6.i.i.i = load i32, ptr %NumNonEmpty.i4.phi.trans.insert.i.i.i, align 4
  br label %_ZNK4llvh19SmallPtrSetImplBase8find_impEPKv.exit.i.i.i

if.end10.i.i.i.i:                                 ; preds = %if.end6.i.i.i.i
  %cmp.i.i8.i.i.i.i = icmp eq ptr %.pre.i.i.i, %.pre5.i.i.i
  %NumNonEmpty.i9.i.i.i.i = getelementptr inbounds i8, ptr %atomic-temp.i.0.i1.i.i, i64 252
  %7 = load i32, ptr %NumNonEmpty.i9.i.i.i.i, align 4
  %CurArraySize.i10.i.i.i.i = getelementptr inbounds i8, ptr %atomic-temp.i.0.i1.i.i, i64 248
  %8 = load i32, ptr %CurArraySize.i10.i.i.i.i, align 8
  %cond.v.v.i11.i.i.i.i = select i1 %cmp.i.i8.i.i.i.i, i32 %7, i32 %8
  %cond.v.i12.i.i.i.i = zext i32 %cond.v.v.i11.i.i.i.i to i64
  %cond.i13.i.i.i.i = getelementptr inbounds ptr, ptr %.pre.i.i.i, i64 %cond.v.i12.i.i.i.i
  br label %_ZNK4llvh19SmallPtrSetImplBase8find_impEPKv.exit.i.i.i

_ZNK4llvh19SmallPtrSetImplBase8find_impEPKv.exit.i.i.i: ; preds = %for.inc.i.i.i.i, %for.body.i.i.i.i, %if.end10.i.i.i.i, %if.end6.i._ZNK4llvh19SmallPtrSetImplBase8find_impEPKv.exit_crit_edge.i.i.i, %if.then.i.i.i.i
  %9 = phi i32 [ %7, %if.end10.i.i.i.i ], [ %.pre6.i.i.i, %if.end6.i._ZNK4llvh19SmallPtrSetImplBase8find_impEPKv.exit_crit_edge.i.i.i ], [ 0, %if.then.i.i.i.i ], [ %4, %for.body.i.i.i.i ], [ %4, %for.inc.i.i.i.i ]
  %10 = phi ptr [ %.pre5.i.i.i, %if.end10.i.i.i.i ], [ %.pre5.i.i.i, %if.end6.i._ZNK4llvh19SmallPtrSetImplBase8find_impEPKv.exit_crit_edge.i.i.i ], [ %2, %if.then.i.i.i.i ], [ %2, %for.body.i.i.i.i ], [ %2, %for.inc.i.i.i.i ]
  %11 = phi ptr [ %.pre.i.i.i, %if.end10.i.i.i.i ], [ %.pre.i.i.i, %if.end6.i._ZNK4llvh19SmallPtrSetImplBase8find_impEPKv.exit_crit_edge.i.i.i ], [ %2, %if.then.i.i.i.i ], [ %2, %for.body.i.i.i.i ], [ %2, %for.inc.i.i.i.i ]
  %retval.0.i.i.i.i = phi ptr [ %cond.i13.i.i.i.i, %if.end10.i.i.i.i ], [ %call7.i.i.i.i, %if.end6.i._ZNK4llvh19SmallPtrSetImplBase8find_impEPKv.exit_crit_edge.i.i.i ], [ %add.ptr.i.i.i.i, %if.then.i.i.i.i ], [ %add.ptr.i.i.i.i, %for.inc.i.i.i.i ], [ %APtr.016.i.i.i.i, %for.body.i.i.i.i ]
  %cmp.i.i3.i.i.i = icmp eq ptr %11, %10
  %CurArraySize.i.i.i.i = getelementptr inbounds i8, ptr %atomic-temp.i.0.i1.i.i, i64 248
  %12 = load i32, ptr %CurArraySize.i.i.i.i, align 8
  %cond.v.v.i.i.i.i = select i1 %cmp.i.i3.i.i.i, i32 %9, i32 %12
  %cond.v.i.i.i.i = zext i32 %cond.v.v.i.i.i.i to i64
  %cond.i.i.i.i = getelementptr inbounds ptr, ptr %11, i64 %cond.v.i.i.i.i
  %cmp.i.i.not.i = icmp eq ptr %retval.0.i.i.i.i, %cond.i.i.i.i
  br i1 %cmp.i.i.not.i, label %_ZN12_GLOBAL__N_117CommandLineParser20unregisterSubCommandEPN4llvh2cl10SubCommandE.exit, label %if.end.i.i.i

if.end.i.i.i:                                     ; preds = %_ZNK4llvh19SmallPtrSetImplBase8find_impEPKv.exit.i.i.i
  store ptr inttoptr (i64 -2 to ptr), ptr %retval.0.i.i.i.i, align 8
  %NumTombstones.i.i.i = getelementptr inbounds i8, ptr %atomic-temp.i.0.i1.i.i, i64 256
  %13 = load i32, ptr %NumTombstones.i.i.i, align 8
  %inc.i.i.i = add i32 %13, 1
  store i32 %inc.i.i.i, ptr %NumTombstones.i.i.i, align 8
  br label %_ZN12_GLOBAL__N_117CommandLineParser20unregisterSubCommandEPN4llvh2cl10SubCommandE.exit

_ZN12_GLOBAL__N_117CommandLineParser20unregisterSubCommandEPN4llvh2cl10SubCommandE.exit: ; preds = %_ZNK4llvh19SmallPtrSetImplBase8find_impEPKv.exit.i.i.i, %if.end.i.i.i
  ret void
}